target datalayout = "e-m:e-p270:32:32-p271:32:32-p272:64:64-i64:64-i128:128-f80:128-n8:16:32:64-S128"
target triple = "x86_64-pc-linux-gnu"

%"class.std::__cxx11::basic_string" = type { %"struct.std::__cxx11::basic_string<char>::_Alloc_hider", i64, %union.anon }
%"struct.std::__cxx11::basic_string<char>::_Alloc_hider" = type { ptr }
%union.anon = type { i64, [8 x i8] }

@_ZN7testing35FLAGS_gtest_also_run_disabled_testsE = global i8 0, align 1
@_ZN7testing28FLAGS_gtest_break_on_failureE = global i8 0, align 1
@_ZN7testing28FLAGS_gtest_catch_exceptionsE = global i8 0, align 1
@_ZN7testing17FLAGS_gtest_colorB5cxx11E = global %"class.std::__cxx11::basic_string" zeroinitializer, align 8
@_ZN7testing18FLAGS_gtest_filterB5cxx11E = global %"class.std::__cxx11::basic_string" zeroinitializer, align 8
@_ZN7testing24FLAGS_gtest_param_filterB5cxx11E = global %"class.std::__cxx11::basic_string" zeroinitializer, align 8
@_ZN7testing22FLAGS_gtest_list_testsE = global i8 0, align 1
@_ZN7testing18FLAGS_gtest_outputB5cxx11E = global %"class.std::__cxx11::basic_string" zeroinitializer, align 8
@_ZN7testing22FLAGS_gtest_print_timeE = global i8 0, align 1
@_ZN7testing22FLAGS_gtest_print_utf8E = global i8 0, align 1
@_ZN7testing23FLAGS_gtest_random_seedE = global i32 0, align 4
@_ZN7testing18FLAGS_gtest_repeatE = global i32 0, align 4
@_ZN7testing19FLAGS_gtest_shuffleE = global i8 0, align 1
@_ZN7testing29FLAGS_gtest_stack_trace_depthE = global i32 0, align 4
@_ZN7testing28FLAGS_gtest_stream_result_toB5cxx11E = global %"class.std::__cxx11::basic_string" zeroinitializer, align 8
@_ZN7testing28FLAGS_gtest_throw_on_failureE = global i8 0, align 1
@_ZN7testing8internal35FLAGS_gtest_internal_run_death_testB5cxx11E = global %"class.std::__cxx11::basic_string" zeroinitializer, align 8
@_ZN7testing28FLAGS_gtest_death_test_styleB5cxx11E = global %"class.std::__cxx11::basic_string" zeroinitializer, align 8
@_ZN7testing31FLAGS_gtest_death_test_use_forkE = global i8 0, align 1
@_ZN7testing8internalL11kFilterFlagE = internal constant [7 x i8] c"filter\00", align 1
@_ZN7testing8internalL25kInternalRunDeathTestFlagE = internal constant [24 x i8] c"internal_run_death_test\00", align 16
@_ZN7testing8internalL25kAlsoRunDisabledTestsFlagE = internal constant [24 x i8] c"also_run_disabled_tests\00", align 16
@_ZN7testing8internalL19kBreakOnFailureFlagE = internal constant [17 x i8] c"break_on_failure\00", align 16
@_ZN7testing8internalL20kCatchExceptionsFlagE = internal constant [17 x i8] c"catch_exceptions\00", align 16
@_ZN7testing8internalL10kColorFlagE = internal constant [6 x i8] c"color\00", align 1
@_ZN7testing8internalL19kDeathTestStyleFlagE = internal constant [17 x i8] c"death_test_style\00", align 16
@_ZN7testing8internalL17kDeathTestUseForkE = internal constant [20 x i8] c"death_test_use_fork\00", align 16
@_ZN7testing8internalL16kParamFilterFlagE = internal constant [13 x i8] c"param_filter\00", align 1
@_ZN7testing8internalL14kListTestsFlagE = internal constant [11 x i8] c"list_tests\00", align 1
@_ZN7testing8internalL11kOutputFlagE = internal constant [7 x i8] c"output\00", align 1
@_ZN7testing8internalL14kPrintTimeFlagE = internal constant [11 x i8] c"print_time\00", align 1
@_ZN7testing8internalL14kPrintUTF8FlagE = internal constant [11 x i8] c"print_utf8\00", align 1
@_ZN7testing8internalL15kRandomSeedFlagE = internal constant [12 x i8] c"random_seed\00", align 1
@_ZN7testing8internalL11kRepeatFlagE = internal constant [7 x i8] c"repeat\00", align 1
@_ZN7testing8internalL12kShuffleFlagE = internal constant [8 x i8] c"shuffle\00", align 1
@_ZN7testing8internalL20kStackTraceDepthFlagE = internal constant [18 x i8] c"stack_trace_depth\00", align 16
@_ZN7testing8internalL19kStreamResultToFlagE = internal constant [17 x i8] c"stream_result_to\00", align 16
@_ZN7testing8internalL19kThrowOnFailureFlagE = internal constant [17 x i8] c"throw_on_failure\00", align 16

; Function Attrs: mustprogress uwtable
define internal noundef zeroext i1 @_ZN7testing8internalL19ParseGoogleTestFlagEPKc(ptr noundef %0) #6 {
  %2 = alloca ptr, align 8
  store ptr %0, ptr %2, align 8, !tbaa !15
  %3 = load ptr, ptr %2, align 8, !tbaa !15
  %4 = call noundef zeroext i1 @_ZN7testing8internalL13ParseBoolFlagEPKcS2_Pb(ptr noundef %3, ptr noundef @_ZN7testing8internalL25kAlsoRunDisabledTestsFlagE, ptr noundef @_ZN7testing35FLAGS_gtest_also_run_disabled_testsE)
  br i1 %4, label %59, label %5

5:                                                ; preds = %1
  %6 = load ptr, ptr %2, align 8, !tbaa !15
  %7 = call noundef zeroext i1 @_ZN7testing8internalL13ParseBoolFlagEPKcS2_Pb(ptr noundef %6, ptr noundef @_ZN7testing8internalL19kBreakOnFailureFlagE, ptr noundef @_ZN7testing28FLAGS_gtest_break_on_failureE)
  br i1 %7, label %59, label %8

8:                                                ; preds = %5
  %9 = load ptr, ptr %2, align 8, !tbaa !15
  %10 = call noundef zeroext i1 @_ZN7testing8internalL13ParseBoolFlagEPKcS2_Pb(ptr noundef %9, ptr noundef @_ZN7testing8internalL20kCatchExceptionsFlagE, ptr noundef @_ZN7testing28FLAGS_gtest_catch_exceptionsE)
  br i1 %10, label %59, label %11

11:                                               ; preds = %8
  %12 = load ptr, ptr %2, align 8, !tbaa !15
  %13 = call noundef zeroext i1 @_ZN7testing8internalL15ParseStringFlagINSt7__cxx1112basic_stringIcSt11char_traitsIcESaIcEEEEEbPKcS9_PT_(ptr noundef %12, ptr noundef @_ZN7testing8internalL10kColorFlagE, ptr noundef @_ZN7testing17FLAGS_gtest_colorB5cxx11E)
  br i1 %13, label %59, label %14

14:                                               ; preds = %11
  %15 = load ptr, ptr %2, align 8, !tbaa !15
  %16 = call noundef zeroext i1 @_ZN7testing8internalL15ParseStringFlagINSt7__cxx1112basic_stringIcSt11char_traitsIcESaIcEEEEEbPKcS9_PT_(ptr noundef %15, ptr noundef @_ZN7testing8internalL19kDeathTestStyleFlagE, ptr noundef @_ZN7testing28FLAGS_gtest_death_test_styleB5cxx11E)
  br i1 %16, label %59, label %17

17:                                               ; preds = %14
  %18 = load ptr, ptr %2, align 8, !tbaa !15
  %19 = call noundef zeroext i1 @_ZN7testing8internalL13ParseBoolFlagEPKcS2_Pb(ptr noundef %18, ptr noundef @_ZN7testing8internalL17kDeathTestUseForkE, ptr noundef @_ZN7testing31FLAGS_gtest_death_test_use_forkE)
  br i1 %19, label %59, label %20

20:                                               ; preds = %17
  %21 = load ptr, ptr %2, align 8, !tbaa !15
  %22 = call noundef zeroext i1 @_ZN7testing8internalL15ParseStringFlagINSt7__cxx1112basic_stringIcSt11char_traitsIcESaIcEEEEEbPKcS9_PT_(ptr noundef %21, ptr noundef @_ZN7testing8internalL11kFilterFlagE, ptr noundef @_ZN7testing18FLAGS_gtest_filterB5cxx11E)
  br i1 %22, label %59, label %23

23:                                               ; preds = %20
  %24 = load ptr, ptr %2, align 8, !tbaa !15
  %25 = call noundef zeroext i1 @_ZN7testing8internalL15ParseStringFlagINSt7__cxx1112basic_stringIcSt11char_traitsIcESaIcEEEEEbPKcS9_PT_(ptr noundef %24, ptr noundef @_ZN7testing8internalL16kParamFilterFlagE, ptr noundef @_ZN7testing24FLAGS_gtest_param_filterB5cxx11E)
  br i1 %25, label %59, label %26

26:                                               ; preds = %23
  %27 = load ptr, ptr %2, align 8, !tbaa !15
  %28 = call noundef zeroext i1 @_ZN7testing8internalL15ParseStringFlagINSt7__cxx1112basic_stringIcSt11char_traitsIcESaIcEEEEEbPKcS9_PT_(ptr noundef %27, ptr noundef @_ZN7testing8internalL25kInternalRunDeathTestFlagE, ptr noundef @_ZN7testing8internal35FLAGS_gtest_internal_run_death_testB5cxx11E)
  br i1 %28, label %59, label %29

29:                                               ; preds = %26
  %30 = load ptr, ptr %2, align 8, !tbaa !15
  %31 = call noundef zeroext i1 @_ZN7testing8internalL13ParseBoolFlagEPKcS2_Pb(ptr noundef %30, ptr noundef @_ZN7testing8internalL14kListTestsFlagE, ptr noundef @_ZN7testing22FLAGS_gtest_list_testsE)
  br i1 %31, label %59, label %32

32:                                               ; preds = %29
  %33 = load ptr, ptr %2, align 8, !tbaa !15
  %34 = call noundef zeroext i1 @_ZN7testing8internalL15ParseStringFlagINSt7__cxx1112basic_stringIcSt11char_traitsIcESaIcEEEEEbPKcS9_PT_(ptr noundef %33, ptr noundef @_ZN7testing8internalL11kOutputFlagE, ptr noundef @_ZN7testing18FLAGS_gtest_outputB5cxx11E)
  br i1 %34, label %59, label %35

35:                                               ; preds = %32
  %36 = load ptr, ptr %2, align 8, !tbaa !15
  %37 = call noundef zeroext i1 @_ZN7testing8internalL13ParseBoolFlagEPKcS2_Pb(ptr noundef %36, ptr noundef @_ZN7testing8internalL14kPrintTimeFlagE, ptr noundef @_ZN7testing22FLAGS_gtest_print_timeE)
  br i1 %37, label %59, label %38

38:                                               ; preds = %35
  %39 = load ptr, ptr %2, align 8, !tbaa !15
  %40 = call noundef zeroext i1 @_ZN7testing8internalL13ParseBoolFlagEPKcS2_Pb(ptr noundef %39, ptr noundef @_ZN7testing8internalL14kPrintUTF8FlagE, ptr noundef @_ZN7testing22FLAGS_gtest_print_utf8E)
  br i1 %40, label %59, label %41

41:                                               ; preds = %38
  %42 = load ptr, ptr %2, align 8, !tbaa !15
  %43 = call noundef zeroext i1 @_ZN7testing8internal14ParseInt32FlagEPKcS2_Pi(ptr noundef %42, ptr noundef @_ZN7testing8internalL15kRandomSeedFlagE, ptr noundef @_ZN7testing23FLAGS_gtest_random_seedE)
  br i1 %43, label %59, label %44

44:                                               ; preds = %41
  %45 = load ptr, ptr %2, align 8, !tbaa !15
  %46 = call noundef zeroext i1 @_ZN7testing8internal14ParseInt32FlagEPKcS2_Pi(ptr noundef %45, ptr noundef @_ZN7testing8internalL11kRepeatFlagE, ptr noundef @_ZN7testing18FLAGS_gtest_repeatE)
  br i1 %46, label %59, label %47

47:                                               ; preds = %44
  %48 = load ptr, ptr %2, align 8, !tbaa !15
  %49 = call noundef zeroext i1 @_ZN7testing8internalL13ParseBoolFlagEPKcS2_Pb(ptr noundef %48, ptr noundef @_ZN7testing8internalL12kShuffleFlagE, ptr noundef @_ZN7testing19FLAGS_gtest_shuffleE)
  br i1 %49, label %59, label %50

50:                                               ; preds = %47
  %51 = load ptr, ptr %2, align 8, !tbaa !15
  %52 = call noundef zeroext i1 @_ZN7testing8internal14ParseInt32FlagEPKcS2_Pi(ptr noundef %51, ptr noundef @_ZN7testing8internalL20kStackTraceDepthFlagE, ptr noundef @_ZN7testing29FLAGS_gtest_stack_trace_depthE)
  br i1 %52, label %59, label %53

53:                                               ; preds = %50
  %54 = load ptr, ptr %2, align 8, !tbaa !15
  %55 = call noundef zeroext i1 @_ZN7testing8internalL15ParseStringFlagINSt7__cxx1112basic_stringIcSt11char_traitsIcESaIcEEEEEbPKcS9_PT_(ptr noundef %54, ptr noundef @_ZN7testing8internalL19kStreamResultToFlagE, ptr noundef @_ZN7testing28FLAGS_gtest_stream_result_toB5cxx11E)
  br i1 %55, label %59, label %56

56:                                               ; preds = %53
  %57 = load ptr, ptr %2, align 8, !tbaa !15
  %58 = call noundef zeroext i1 @_ZN7testing8internalL13ParseBoolFlagEPKcS2_Pb(ptr noundef %57, ptr noundef @_ZN7testing8internalL19kThrowOnFailureFlagE, ptr noundef @_ZN7testing28FLAGS_gtest_throw_on_failureE)
  br label %59

59:                                               ; preds = %56, %53, %50, %47, %44, %41, %38, %35, %32, %29, %26, %23, %20, %17, %14, %11, %8, %5, %1
  %60 = phi i1 [ true, %53 ], [ true, %50 ], [ true, %47 ], [ true, %44 ], [ true, %41 ], [ true, %38 ], [ true, %35 ], [ true, %32 ], [ true, %29 ], [ true, %26 ], [ true, %23 ], [ true, %20 ], [ true, %17 ], [ true, %14 ], [ true, %11 ], [ true, %8 ], [ true, %5 ], [ true, %1 ], [ %58, %56 ]
  ret i1 %60
}