; Function Attrs: mustprogress uwtable
define internal fastcc noundef zeroext i1 @_ZN7testing8internalL19ParseGoogleTestFlagEPKc(ptr noundef %0) unnamed_addr #4 {
  %2 = tail call fastcc noundef ptr @_ZN7testing8internalL14ParseFlagValueEPKcS2_b(ptr noundef %0, ptr noundef nonnull @.str, i1 noundef zeroext true)
  %.not = icmp eq ptr %2, null
  br i1 %.not, label %_ZN7testing8internalL13ParseBoolFlagEPKcS2_Pb.exit, label %3

3:                                                ; preds = %1
  %4 = load i8, ptr %2, align 1, !tbaa !13
  switch i8 %4, label %5 [
    i8 48, label %_ZN7testing8internalL13ParseBoolFlagEPKcS2_Pb.exit.thread
    i8 102, label %_ZN7testing8internalL13ParseBoolFlagEPKcS2_Pb.exit.thread
  ]

5:                                                ; preds = %3
  %6 = icmp ne i8 %4, 70
  %7 = zext i1 %6 to i8
  br label %_ZN7testing8internalL13ParseBoolFlagEPKcS2_Pb.exit.thread

_ZN7testing8internalL13ParseBoolFlagEPKcS2_Pb.exit.thread: ; preds = %3, %3, %5
  %8 = phi i8 [ 0, %3 ], [ %7, %5 ], [ 0, %3 ]
  store i8 %8, ptr @_ZN7testing35FLAGS_gtest_also_run_disabled_testsE, align 1, !tbaa !67
  br label %63

_ZN7testing8internalL13ParseBoolFlagEPKcS2_Pb.exit: ; preds = %1
  %9 = tail call fastcc noundef ptr @_ZN7testing8internalL14ParseFlagValueEPKcS2_b(ptr noundef %0, ptr noundef nonnull @.str.23, i1 noundef zeroext true)
  %.not23 = icmp eq ptr %9, null
  br i1 %.not23, label %_ZN7testing8internalL13ParseBoolFlagEPKcS2_Pb.exit19, label %10

10:                                               ; preds = %_ZN7testing8internalL13ParseBoolFlagEPKcS2_Pb.exit
  %11 = load i8, ptr %9, align 1, !tbaa !13
  switch i8 %11, label %12 [
    i8 48, label %_ZN7testing8internalL13ParseBoolFlagEPKcS2_Pb.exit19.thread
    i8 102, label %_ZN7testing8internalL13ParseBoolFlagEPKcS2_Pb.exit19.thread
  ]

12:                                               ; preds = %10
  %13 = icmp ne i8 %11, 70
  %14 = zext i1 %13 to i8
  br label %_ZN7testing8internalL13ParseBoolFlagEPKcS2_Pb.exit19.thread

_ZN7testing8internalL13ParseBoolFlagEPKcS2_Pb.exit19.thread: ; preds = %10, %10, %12
  %15 = phi i8 [ 0, %10 ], [ %14, %12 ], [ 0, %10 ]
  store i8 %15, ptr @_ZN7testing28FLAGS_gtest_break_on_failureE, align 1, !tbaa !67
  br label %63

_ZN7testing8internalL13ParseBoolFlagEPKcS2_Pb.exit19: ; preds = %_ZN7testing8internalL13ParseBoolFlagEPKcS2_Pb.exit
  %16 = tail call fastcc noundef ptr @_ZN7testing8internalL14ParseFlagValueEPKcS2_b(ptr noundef %0, ptr noundef nonnull @.str.25, i1 noundef zeroext true)
  %.not24 = icmp eq ptr %16, null
  br i1 %.not24, label %_ZN7testing8internalL13ParseBoolFlagEPKcS2_Pb.exit20, label %17

17:                                               ; preds = %_ZN7testing8internalL13ParseBoolFlagEPKcS2_Pb.exit19
  %18 = load i8, ptr %16, align 1, !tbaa !13
  switch i8 %18, label %19 [
    i8 48, label %_ZN7testing8internalL13ParseBoolFlagEPKcS2_Pb.exit20.thread
    i8 102, label %_ZN7testing8internalL13ParseBoolFlagEPKcS2_Pb.exit20.thread
  ]

19:                                               ; preds = %17
  %20 = icmp ne i8 %18, 70
  %21 = zext i1 %20 to i8
  br label %_ZN7testing8internalL13ParseBoolFlagEPKcS2_Pb.exit20.thread

_ZN7testing8internalL13ParseBoolFlagEPKcS2_Pb.exit20.thread: ; preds = %17, %17, %19
  %22 = phi i8 [ 0, %17 ], [ %21, %19 ], [ 0, %17 ]
  store i8 %22, ptr @_ZN7testing28FLAGS_gtest_catch_exceptionsE, align 1, !tbaa !67
  br label %63

_ZN7testing8internalL13ParseBoolFlagEPKcS2_Pb.exit20: ; preds = %_ZN7testing8internalL13ParseBoolFlagEPKcS2_Pb.exit19
  %23 = tail call fastcc noundef ptr @_ZN7testing8internalL14ParseFlagValueEPKcS2_b(ptr noundef %0, ptr noundef nonnull @.str.27, i1 noundef zeroext false)
  %.not25 = icmp eq ptr %23, null
  br i1 %.not25, label %_ZN7testing8internalL15ParseStringFlagINSt7__cxx1112basic_stringIcSt11char_traitsIcESaIcEEEEEbPKcS9_PT_.exit, label %_ZN7testing8internalL15ParseStringFlagINSt7__cxx1112basic_stringIcSt11char_traitsIcESaIcEEEEEbPKcS9_PT_.exit.thread

_ZN7testing8internalL15ParseStringFlagINSt7__cxx1112basic_stringIcSt11char_traitsIcESaIcEEEEEbPKcS9_PT_.exit.thread: ; preds = %_ZN7testing8internalL13ParseBoolFlagEPKcS2_Pb.exit20
  %24 = load i64, ptr getelementptr inbounds nuw (i8, ptr @_ZN7testing17FLAGS_gtest_colorB5cxx11E, i64 8), align 8, !tbaa !11
  %25 = tail call noundef i64 @strlen(ptr noundef nonnull dereferenceable(1) %23) #56
  %26 = tail call noundef nonnull align 8 dereferenceable(32) ptr @_ZNSt7__cxx1112basic_stringIcSt11char_traitsIcESaIcEE10_M_replaceEmmPKcm(ptr noundef nonnull align 8 dereferenceable(32) @_ZN7testing17FLAGS_gtest_colorB5cxx11E, i64 noundef 0, i64 noundef %24, ptr noundef nonnull %23, i64 noundef %25)
  br label %63

_ZN7testing8internalL15ParseStringFlagINSt7__cxx1112basic_stringIcSt11char_traitsIcESaIcEEEEEbPKcS9_PT_.exit: ; preds = %_ZN7testing8internalL13ParseBoolFlagEPKcS2_Pb.exit20
  %27 = tail call fastcc noundef ptr @_ZN7testing8internalL14ParseFlagValueEPKcS2_b(ptr noundef %0, ptr noundef nonnull @.str.296, i1 noundef zeroext false)
  %.not26 = icmp eq ptr %27, null
  br i1 %.not26, label %_ZN7testing8internalL15ParseStringFlagINSt7__cxx1112basic_stringIcSt11char_traitsIcESaIcEEEEEbPKcS9_PT_.exit21, label %_ZN7testing8internalL15ParseStringFlagINSt7__cxx1112basic_stringIcSt11char_traitsIcESaIcEEEEEbPKcS9_PT_.exit21.thread

_ZN7testing8internalL15ParseStringFlagINSt7__cxx1112basic_stringIcSt11char_traitsIcESaIcEEEEEbPKcS9_PT_.exit21.thread: ; preds = %_ZN7testing8internalL15ParseStringFlagINSt7__cxx1112basic_stringIcSt11char_traitsIcESaIcEEEEEbPKcS9_PT_.exit
  %28 = load i64, ptr getelementptr inbounds nuw (i8, ptr @_ZN7testing28FLAGS_gtest_death_test_styleB5cxx11E, i64 8), align 8, !tbaa !11
  %29 = tail call noundef i64 @strlen(ptr noundef nonnull dereferenceable(1) %27) #56
  %30 = tail call noundef nonnull align 8 dereferenceable(32) ptr @_ZNSt7__cxx1112basic_stringIcSt11char_traitsIcESaIcEE10_M_replaceEmmPKcm(ptr noundef nonnull align 8 dereferenceable(32) @_ZN7testing28FLAGS_gtest_death_test_styleB5cxx11E, i64 noundef 0, i64 noundef %28, ptr noundef nonnull %27, i64 noundef %29)
  br label %63

_ZN7testing8internalL15ParseStringFlagINSt7__cxx1112basic_stringIcSt11char_traitsIcESaIcEEEEEbPKcS9_PT_.exit21: ; preds = %_ZN7testing8internalL15ParseStringFlagINSt7__cxx1112basic_stringIcSt11char_traitsIcESaIcEEEEEbPKcS9_PT_.exit
  %31 = tail call fastcc noundef ptr @_ZN7testing8internalL14ParseFlagValueEPKcS2_b(ptr noundef %0, ptr noundef nonnull @.str.298, i1 noundef zeroext true)
  %.not27 = icmp eq ptr %31, null
  br i1 %.not27, label %_ZN7testing8internalL13ParseBoolFlagEPKcS2_Pb.exit22, label %32

32:                                               ; preds = %_ZN7testing8internalL15ParseStringFlagINSt7__cxx1112basic_stringIcSt11char_traitsIcESaIcEEEEEbPKcS9_PT_.exit21
  %33 = load i8, ptr %31, align 1, !tbaa !13
  switch i8 %33, label %34 [
    i8 48, label %_ZN7testing8internalL13ParseBoolFlagEPKcS2_Pb.exit22.thread
    i8 102, label %_ZN7testing8internalL13ParseBoolFlagEPKcS2_Pb.exit22.thread
  ]

34:                                               ; preds = %32
  %35 = icmp ne i8 %33, 70
  %36 = zext i1 %35 to i8
  br label %_ZN7testing8internalL13ParseBoolFlagEPKcS2_Pb.exit22.thread

_ZN7testing8internalL13ParseBoolFlagEPKcS2_Pb.exit22.thread: ; preds = %32, %32, %34
  %37 = phi i8 [ 0, %32 ], [ %36, %34 ], [ 0, %32 ]
  store i8 %37, ptr @_ZN7testing31FLAGS_gtest_death_test_use_forkE, align 1, !tbaa !67
  br label %63

_ZN7testing8internalL13ParseBoolFlagEPKcS2_Pb.exit22: ; preds = %_ZN7testing8internalL15ParseStringFlagINSt7__cxx1112basic_stringIcSt11char_traitsIcESaIcEEEEEbPKcS9_PT_.exit21
  %38 = tail call fastcc noundef zeroext i1 @_ZN7testing8internalL15ParseStringFlagINSt7__cxx1112basic_stringIcSt11char_traitsIcESaIcEEEEEbPKcS9_PT_(ptr noundef %0, ptr noundef nonnull @.str.30, ptr noundef nonnull @_ZN7testing18FLAGS_gtest_filterB5cxx11E)
  br i1 %38, label %63, label %39

39:                                               ; preds = %_ZN7testing8internalL13ParseBoolFlagEPKcS2_Pb.exit22
  %40 = tail call fastcc noundef zeroext i1 @_ZN7testing8internalL15ParseStringFlagINSt7__cxx1112basic_stringIcSt11char_traitsIcESaIcEEEEEbPKcS9_PT_(ptr noundef %0, ptr noundef nonnull @.str.34, ptr noundef nonnull @_ZN7testing24FLAGS_gtest_param_filterB5cxx11E)
  br i1 %40, label %63, label %41

41:                                               ; preds = %39
  %42 = tail call fastcc noundef zeroext i1 @_ZN7testing8internalL15ParseStringFlagINSt7__cxx1112basic_stringIcSt11char_traitsIcESaIcEEEEEbPKcS9_PT_(ptr noundef %0, ptr noundef nonnull @_ZN7testing8internalL25kInternalRunDeathTestFlagE, ptr noundef nonnull @_ZN7testing8internal35FLAGS_gtest_internal_run_death_testB5cxx11E)
  br i1 %42, label %63, label %43

43:                                               ; preds = %41
  %44 = tail call fastcc noundef zeroext i1 @_ZN7testing8internalL13ParseBoolFlagEPKcS2_Pb(ptr noundef %0, ptr noundef nonnull @_ZN7testing8internalL14kListTestsFlagE, ptr noundef nonnull @_ZN7testing22FLAGS_gtest_list_testsE)
  br i1 %44, label %63, label %45

45:                                               ; preds = %43
  %46 = tail call fastcc noundef zeroext i1 @_ZN7testing8internalL15ParseStringFlagINSt7__cxx1112basic_stringIcSt11char_traitsIcESaIcEEEEEbPKcS9_PT_(ptr noundef %0, ptr noundef nonnull @.str.36, ptr noundef nonnull @_ZN7testing18FLAGS_gtest_outputB5cxx11E)
  br i1 %46, label %63, label %47

47:                                               ; preds = %45
  %48 = tail call fastcc noundef zeroext i1 @_ZN7testing8internalL13ParseBoolFlagEPKcS2_Pb(ptr noundef %0, ptr noundef nonnull @.str.38, ptr noundef nonnull @_ZN7testing22FLAGS_gtest_print_timeE)
  br i1 %48, label %63, label %49

49:                                               ; preds = %47
  %50 = tail call fastcc noundef zeroext i1 @_ZN7testing8internalL13ParseBoolFlagEPKcS2_Pb(ptr noundef %0, ptr noundef nonnull @.str.40, ptr noundef nonnull @_ZN7testing22FLAGS_gtest_print_utf8E)
  br i1 %50, label %63, label %51

51:                                               ; preds = %49
  %52 = tail call noundef zeroext i1 @_ZN7testing8internal14ParseInt32FlagEPKcS2_Pi(ptr noundef %0, ptr noundef nonnull @.str.42, ptr noundef nonnull @_ZN7testing23FLAGS_gtest_random_seedE)
  br i1 %52, label %63, label %53

53:                                               ; preds = %51
  %54 = tail call noundef zeroext i1 @_ZN7testing8internal14ParseInt32FlagEPKcS2_Pi(ptr noundef %0, ptr noundef nonnull @.str.44, ptr noundef nonnull @_ZN7testing18FLAGS_gtest_repeatE)
  br i1 %54, label %63, label %55

55:                                               ; preds = %53
  %56 = tail call fastcc noundef zeroext i1 @_ZN7testing8internalL13ParseBoolFlagEPKcS2_Pb(ptr noundef %0, ptr noundef nonnull @.str.46, ptr noundef nonnull @_ZN7testing19FLAGS_gtest_shuffleE)
  br i1 %56, label %63, label %57

57:                                               ; preds = %55
  %58 = tail call noundef zeroext i1 @_ZN7testing8internal14ParseInt32FlagEPKcS2_Pi(ptr noundef %0, ptr noundef nonnull @.str.48, ptr noundef nonnull @_ZN7testing29FLAGS_gtest_stack_trace_depthE)
  br i1 %58, label %63, label %59

59:                                               ; preds = %57
  %60 = tail call fastcc noundef zeroext i1 @_ZN7testing8internalL15ParseStringFlagINSt7__cxx1112basic_stringIcSt11char_traitsIcESaIcEEEEEbPKcS9_PT_(ptr noundef %0, ptr noundef nonnull @.str.50, ptr noundef nonnull @_ZN7testing28FLAGS_gtest_stream_result_toB5cxx11E)
  br i1 %60, label %63, label %61

61:                                               ; preds = %59
  %62 = tail call fastcc noundef zeroext i1 @_ZN7testing8internalL13ParseBoolFlagEPKcS2_Pb(ptr noundef %0, ptr noundef nonnull @.str.53, ptr noundef nonnull @_ZN7testing28FLAGS_gtest_throw_on_failureE)
  br label %63

63:                                               ; preds = %_ZN7testing8internalL13ParseBoolFlagEPKcS2_Pb.exit22.thread, %_ZN7testing8internalL15ParseStringFlagINSt7__cxx1112basic_stringIcSt11char_traitsIcESaIcEEEEEbPKcS9_PT_.exit21.thread, %_ZN7testing8internalL15ParseStringFlagINSt7__cxx1112basic_stringIcSt11char_traitsIcESaIcEEEEEbPKcS9_PT_.exit.thread, %_ZN7testing8internalL13ParseBoolFlagEPKcS2_Pb.exit20.thread, %_ZN7testing8internalL13ParseBoolFlagEPKcS2_Pb.exit19.thread, %_ZN7testing8internalL13ParseBoolFlagEPKcS2_Pb.exit.thread, %61, %59, %57, %55, %53, %51, %49, %47, %45, %43, %41, %39, %_ZN7testing8internalL13ParseBoolFlagEPKcS2_Pb.exit22
  %64 = phi i1 [ true, %59 ], [ true, %57 ], [ true, %55 ], [ true, %53 ], [ true, %51 ], [ true, %49 ], [ true, %47 ], [ true, %45 ], [ true, %43 ], [ true, %41 ], [ true, %39 ], [ true, %_ZN7testing8internalL13ParseBoolFlagEPKcS2_Pb.exit22 ], [ %62, %61 ], [ true, %_ZN7testing8internalL13ParseBoolFlagEPKcS2_Pb.exit.thread ], [ true, %_ZN7testing8internalL13ParseBoolFlagEPKcS2_Pb.exit19.thread ], [ true, %_ZN7testing8internalL13ParseBoolFlagEPKcS2_Pb.exit20.thread ], [ true, %_ZN7testing8internalL15ParseStringFlagINSt7__cxx1112basic_stringIcSt11char_traitsIcESaIcEEEEEbPKcS9_PT_.exit.thread ], [ true, %_ZN7testing8internalL15ParseStringFlagINSt7__cxx1112basic_stringIcSt11char_traitsIcESaIcEEEEEbPKcS9_PT_.exit21.thread ], [ true, %_ZN7testing8internalL13ParseBoolFlagEPKcS2_Pb.exit22.thread ]
  ret i1 %64
}